; Function Attrs: nounwind uwtable
define ptr @l___private_Lean_Compiler_IR_RC_0__Lean_IR_ExplicitRC_addIncBeforeAux(ptr noundef readonly captures(none) %0, ptr noundef readonly captures(none) %1, ptr noundef %2, ptr noundef %3, ptr noundef %4) local_unnamed_addr #0 {
lean_dec.exit:
  %5 = getelementptr i8, ptr %1, i64 8
  %.val = load i64, ptr %5, align 8, !tbaa !13
  %6 = shl i64 %.val, 1
  %7 = or disjoint i64 %6, 1
  %8 = inttoptr i64 %7 to ptr
  %9 = tail call ptr @l_Nat_foldTR_loop___at___private_Lean_Compiler_IR_RC_0__Lean_IR_ExplicitRC_addIncBeforeAux___spec__1(ptr noundef %0, ptr noundef %1, ptr noundef %2, ptr noundef %4, ptr noundef nonnull %8, ptr noundef nonnull %8, ptr nonnull poison, ptr noundef %3)
  ret ptr %9
}